target datalayout = "e-m:e-p270:32:32-p271:32:32-p272:64:64-i64:64-i128:128-f80:128-n8:16:32:64-S128"
target triple = "x86_64-pc-linux-gnu"

%struct.SDL_Mouse = type { ptr, ptr, ptr, ptr, ptr, ptr, ptr, ptr, ptr, ptr, ptr, ptr, ptr, ptr, i8, float, float, ptr, float, float, float, float, float, float, float, float, double, double, i8, i8, i8, i8, i8, i8, i8, i8, i64, i8, float, i8, float, i8, i32, i32, i8, i8, i8, i8, i8, i8, i8, i8, i8, ptr, i32, ptr, ptr, ptr, ptr, i8, ptr }
%struct.SDL_Rect = type { i32, i32, i32, i32 }
%struct.SDL_Window = type { i32, ptr, ptr, i32, i32, i32, i32, i32, i32, i32, i32, float, float, i32, i32, i64, i64, float, i8, i8, i32, i32, %struct.SDL_Rect, %struct.SDL_Rect, %struct.SDL_Rect, i8, i8, i8, %struct.SDL_DisplayMode, %struct.SDL_DisplayMode, %struct.SDL_HDROutputProperties, float, ptr, i8, i8, i8, i8, i8, i8, i8, i8, i8, i32, i32, i32, i32, %struct.SDL_Rect, i32, i8, %struct.SDL_Rect, i32, %struct.SDL_Rect, ptr, ptr, i32, float, i32, i32, ptr, ptr, ptr, ptr, ptr, ptr, ptr, ptr, ptr }
%struct.SDL_DisplayMode = type { i32, i32, i32, i32, float, float, i32, i32, ptr }
%struct.SDL_HDROutputProperties = type { float, float }

@SDL_mouse = internal global %struct.SDL_Mouse zeroinitializer, align 8

; Function Attrs: nounwind uwtable
define hidden ptr @SDL_GetMouse() #0 {
  ret ptr @SDL_mouse
}

; Function Attrs: nounwind uwtable
define hidden void @SDL_PerformWarpMouseInWindow(ptr noundef %0, float noundef %1, float noundef %2, i1 noundef zeroext %3) #0 {
  %5 = alloca ptr, align 8
  %6 = alloca float, align 4
  %7 = alloca float, align 4
  %8 = alloca i8, align 1
  %9 = alloca ptr, align 8
  %10 = alloca i32, align 4
  store ptr %0, ptr %5, align 8
  store float %1, ptr %6, align 4
  store float %2, ptr %7, align 4
  %11 = zext i1 %3 to i8
  store i8 %11, ptr %8, align 1
  call void @llvm.lifetime.start.p0(i64 8, ptr %9) #7
  %12 = call ptr @SDL_GetMouse()
  store ptr %12, ptr %9, align 8
  %13 = load ptr, ptr %5, align 8
  %14 = icmp ne ptr %13, null
  br i1 %14, label %19, label %15

15:                                               ; preds = %4
  %16 = load ptr, ptr %9, align 8
  %17 = getelementptr inbounds nuw %struct.SDL_Mouse, ptr %16, i32 0, i32 17
  %18 = load ptr, ptr %17, align 8
  store ptr %18, ptr %5, align 8
  br label %19

19:                                               ; preds = %15, %4
  %20 = load ptr, ptr %5, align 8
  %21 = icmp ne ptr %20, null
  br i1 %21, label %23, label %22

22:                                               ; preds = %19
  store i32 1, ptr %10, align 4
  br label %84

23:                                               ; preds = %19
  %24 = load ptr, ptr %5, align 8
  %25 = getelementptr inbounds nuw %struct.SDL_Window, ptr %24, i32 0, i32 15
  %26 = load i64, ptr %25, align 8
  %27 = and i64 %26, 64
  %28 = icmp eq i64 %27, 64
  br i1 %28, label %29, label %30

29:                                               ; preds = %23
  store i32 1, ptr %10, align 4
  br label %84

30:                                               ; preds = %23
  %31 = load float, ptr %6, align 4
  %32 = load ptr, ptr %9, align 8
  %33 = getelementptr inbounds nuw %struct.SDL_Mouse, ptr %32, i32 0, i32 22
  store float %31, ptr %33, align 8
  %34 = load float, ptr %7, align 4
  %35 = load ptr, ptr %9, align 8
  %36 = getelementptr inbounds nuw %struct.SDL_Mouse, ptr %35, i32 0, i32 23
  store float %34, ptr %36, align 4
  %37 = load ptr, ptr %9, align 8
  %38 = getelementptr inbounds nuw %struct.SDL_Mouse, ptr %37, i32 0, i32 28
  store i8 0, ptr %38, align 8
  %39 = load ptr, ptr %9, align 8
  %40 = getelementptr inbounds nuw %struct.SDL_Mouse, ptr %39, i32 0, i32 29
  %41 = load i8, ptr %40, align 1, !range !3, !noundef !4
  %42 = trunc i8 %41 to i1
  br i1 %42, label %43, label %61

43:                                               ; preds = %30
  %44 = load i8, ptr %8, align 1, !range !3, !noundef !4
  %45 = trunc i8 %44 to i1
  br i1 %45, label %61, label %46

46:                                               ; preds = %43
  %47 = load ptr, ptr %9, align 8
  %48 = getelementptr inbounds nuw %struct.SDL_Mouse, ptr %47, i32 0, i32 30
  %49 = load i8, ptr %48, align 2, !range !3, !noundef !4
  %50 = trunc i8 %49 to i1
  br i1 %50, label %60, label %51

51:                                               ; preds = %46
  %52 = load float, ptr %6, align 4
  %53 = load ptr, ptr %9, align 8
  %54 = getelementptr inbounds nuw %struct.SDL_Mouse, ptr %53, i32 0, i32 18
  store float %52, ptr %54, align 8
  %55 = load float, ptr %7, align 4
  %56 = load ptr, ptr %9, align 8
  %57 = getelementptr inbounds nuw %struct.SDL_Mouse, ptr %56, i32 0, i32 19
  store float %55, ptr %57, align 4
  %58 = load ptr, ptr %9, align 8
  %59 = getelementptr inbounds nuw %struct.SDL_Mouse, ptr %58, i32 0, i32 28
  store i8 1, ptr %59, align 8
  store i32 1, ptr %10, align 4
  br label %84

60:                                               ; preds = %46
  br label %61

61:                                               ; preds = %60, %43, %30
  %62 = load ptr, ptr %9, align 8
  %63 = getelementptr inbounds nuw %struct.SDL_Mouse, ptr %62, i32 0, i32 5
  %64 = load ptr, ptr %63, align 8
  %65 = icmp ne ptr %64, null
  br i1 %65, label %66, label %79

66:                                               ; preds = %61
  %67 = load ptr, ptr %9, align 8
  %68 = getelementptr inbounds nuw %struct.SDL_Mouse, ptr %67, i32 0, i32 29
  %69 = load i8, ptr %68, align 1, !range !3, !noundef !4
  %70 = trunc i8 %69 to i1
  br i1 %70, label %79, label %71

71:                                               ; preds = %66
  %72 = load ptr, ptr %9, align 8
  %73 = getelementptr inbounds nuw %struct.SDL_Mouse, ptr %72, i32 0, i32 5
  %74 = load ptr, ptr %73, align 8
  %75 = load ptr, ptr %5, align 8
  %76 = load float, ptr %6, align 4
  %77 = load float, ptr %7, align 4
  %78 = call zeroext i1 %74(ptr noundef %75, float noundef %76, float noundef %77)
  br label %83

79:                                               ; preds = %66, %61
  %80 = load ptr, ptr %5, align 8
  %81 = load float, ptr %6, align 4
  %82 = load float, ptr %7, align 4
  call void @SDL_PrivateSendMouseMotion(i64 noundef 0, ptr noundef %80, i32 noundef 0, i1 noundef zeroext false, float noundef %81, float noundef %82)
  br label %83

83:                                               ; preds = %79, %71
  store i32 0, ptr %10, align 4
  br label %84

84:                                               ; preds = %83, %51, %29, %22
  call void @llvm.lifetime.end.p0(i64 8, ptr %9) #7
  %85 = load i32, ptr %10, align 4
  switch i32 %85, label %87 [
    i32 0, label %86
    i32 1, label %86
  ]

86:                                               ; preds = %84, %84
  ret void

87:                                               ; preds = %84
  unreachable
}