; Function Attrs: nounwind uwtable
define hidden void @SDL_PerformWarpMouseInWindow(ptr noundef %0, float noundef %1, float noundef %2, i1 noundef zeroext %3) local_unnamed_addr #0 {
  %.not28 = icmp eq ptr %0, null
  %5 = load ptr, ptr getelementptr inbounds nuw (i8, ptr @SDL_mouse, i64 128), align 8
  %spec.select = select i1 %.not28, ptr %5, ptr %0
  %.not29 = icmp eq ptr %spec.select, null
  br i1 %.not29, label %21, label %6

6:                                                ; preds = %4
  %7 = getelementptr inbounds nuw i8, ptr %spec.select, i64 72
  %8 = load i64, ptr %7, align 8
  %9 = and i64 %8, 64
  %.not30 = icmp eq i64 %9, 0
  br i1 %.not30, label %10, label %21

10:                                               ; preds = %6
  store float %1, ptr getelementptr inbounds nuw (i8, ptr @SDL_mouse, i64 152), align 8
  store float %2, ptr getelementptr inbounds nuw (i8, ptr @SDL_mouse, i64 156), align 4
  store i8 0, ptr getelementptr inbounds nuw (i8, ptr @SDL_mouse, i64 184), align 8
  %11 = load i8, ptr getelementptr inbounds nuw (i8, ptr @SDL_mouse, i64 185), align 1, !range !3, !noundef !4
  %12 = trunc nuw i8 %11 to i1
  %.not = xor i1 %12, true
  %or.cond = or i1 %3, %.not
  %13 = load i8, ptr getelementptr inbounds nuw (i8, ptr @SDL_mouse, i64 186), align 2, !range !3
  %14 = trunc nuw i8 %13 to i1
  %or.cond33 = select i1 %or.cond, i1 true, i1 %14
  br i1 %or.cond33, label %16, label %15

15:                                               ; preds = %10
  store float %1, ptr getelementptr inbounds nuw (i8, ptr @SDL_mouse, i64 136), align 8
  store float %2, ptr getelementptr inbounds nuw (i8, ptr @SDL_mouse, i64 140), align 4
  store i8 1, ptr getelementptr inbounds nuw (i8, ptr @SDL_mouse, i64 184), align 8
  br label %21

16:                                               ; preds = %10
  %17 = load ptr, ptr getelementptr inbounds nuw (i8, ptr @SDL_mouse, i64 40), align 8
  %.not31 = icmp eq ptr %17, null
  %or.cond35 = or i1 %.not31, %12
  br i1 %or.cond35, label %20, label %18

18:                                               ; preds = %16
  %19 = tail call zeroext i1 %17(ptr noundef nonnull %spec.select, float noundef %1, float noundef %2) #13
  br label %21

20:                                               ; preds = %16
  tail call fastcc void @SDL_PrivateSendMouseMotion(i64 noundef 0, ptr noundef nonnull %spec.select, i32 noundef 0, i1 noundef zeroext false, float noundef %1, float noundef %2)
  br label %21

21:                                               ; preds = %18, %20, %6, %4, %15
  ret void
}